; Function Attrs: nounwind uwtable
define noalias nonnull ptr @l_Lean_Widget_addDiffTags___lambda__1(i8 noundef zeroext %0, ptr noundef %1, i8 noundef zeroext %2, ptr noundef readnone captures(none) %3, ptr noundef readnone captures(none) %4, ptr noundef readnone captures(none) %5, ptr noundef readnone captures(none) %6, ptr noundef %7) local_unnamed_addr #0 {
  %9 = icmp eq i8 %0, 0
  %switch.selectcmp.i = icmp eq i8 %2, 1
  %switch.selectcmp10.i = icmp eq i8 %2, 0
  %switch.select.i = select i1 %switch.selectcmp.i, i8 3, i8 5
  %switch.select11.i = select i1 %switch.selectcmp10.i, i8 1, i8 %switch.select.i
  %switch.select13.i = select i1 %switch.selectcmp.i, i8 2, i8 4
  %switch.select15.i = select i1 %switch.selectcmp10.i, i8 0, i8 %switch.select13.i
  %.0.i = select i1 %9, i8 %switch.select11.i, i8 %switch.select15.i
  %10 = tail call ptr @l_Lean_Widget_SubexprInfo_withDiffTag(i8 noundef zeroext %.0.i, ptr noundef %1) #7
  tail call void @lean_inc_heartbeat() #7
  %11 = tail call noalias ptr @mi_malloc_small(i64 noundef 24) #7
  %12 = icmp eq ptr %11, null
  br i1 %12, label %13, label %lean_alloc_ctor.exit

13:                                               ; preds = %8
  tail call void @lean_internal_panic_out_of_memory() #8
  unreachable

lean_alloc_ctor.exit:                             ; preds = %8
  %14 = getelementptr inbounds nuw i8, ptr %11, i64 4
  store i32 1, ptr %11, align 4, !tbaa !8
  store i32 131096, ptr %14, align 4
  %15 = getelementptr inbounds nuw i8, ptr %11, i64 8
  store ptr %10, ptr %15, align 8, !tbaa !4
  %16 = getelementptr inbounds nuw i8, ptr %11, i64 16
  store ptr %7, ptr %16, align 8, !tbaa !4
  ret ptr %11
}